TN:
SF:/mnt/c/Users/aa681/OneDrive/Documents/c++/LogicSimulator/src/AndGate.cpp
FN:4,_ZN7AndGateC2Ev
FN:6,_ZN7AndGate9getOutputEv
FNDA:77,_ZN7AndGate9getOutputEv
FNDA:14,_ZN7AndGateC2Ev
FNF:2
FNH:2
DA:4,14
DA:6,77
DA:7,77
DA:8,240
DA:9,163
DA:11,77
LF:6
LH:6
end_of_record
TN:
SF:/mnt/c/Users/aa681/OneDrive/Documents/c++/LogicSimulator/src/Device.cpp
FN:4,_ZN6Device8addInputEPS_
FNDA:44,_ZN6Device8addInputEPS_
FNF:1
FNH:1
DA:4,44
DA:5,44
DA:6,44
LF:3
LH:3
end_of_record
TN:
SF:/mnt/c/Users/aa681/OneDrive/Documents/c++/LogicSimulator/src/Device.h
FN:15,_ZN6DeviceD0Ev
FN:15,_ZN6DeviceD2Ev
FNDA:0,_ZN6DeviceD0Ev
FNDA:53,_ZN6DeviceD2Ev
FNF:2
FNH:1
DA:15,53
LF:1
LH:1
end_of_record
TN:
SF:/mnt/c/Users/aa681/OneDrive/Documents/c++/LogicSimulator/src/InputPin.cpp
FN:4,_ZN8InputPinC2Ev
FN:6,_ZN8InputPin8setValueEi
FN:10,_ZN8InputPin9getOutputEv
FNDA:27,_ZN8InputPinC2Ev
FNDA:95,_ZN8InputPin8setValueEi
FNDA:155,_ZN8InputPin9getOutputEv
FNF:3
FNH:3
DA:4,27
DA:6,95
DA:7,95
DA:8,95
DA:10,155
DA:11,155
LF:6
LH:6
end_of_record
TN:
SF:/mnt/c/Users/aa681/OneDrive/Documents/c++/LogicSimulator/src/LogicSimulator.cpp
FN:6,_ZN14LogicSimulator12clearCircuitEv
FN:18,_ZN14LogicSimulator11loadCircuitERKNSt7__cxx1112basic_stringIcSt11char_traitsIcESaIcEEE
FN:100,_ZN14LogicSimulator8simulateB5cxx11ERKSt6vectorIiSaIiEE
FN:113,_ZN14LogicSimulator13getTruthTableB5cxx11Ev
FN:128,_ZN14LogicSimulator12getNumInputsEv
FN:132,_ZN14LogicSimulator13getNumOutputsEv
FNDA:2,_ZN14LogicSimulator12getNumInputsEv
FNDA:10,_ZN14LogicSimulator11loadCircuitERKNSt7__cxx1112basic_stringIcSt11char_traitsIcESaIcEEE
FNDA:2,_ZN14LogicSimulator13getNumOutputsEv
FNDA:2,_ZN14LogicSimulator13getTruthTableB5cxx11Ev
FNDA:26,_ZN14LogicSimulator8simulateB5cxx11ERKSt6vectorIiSaIiEE
FNDA:19,_ZN14LogicSimulator12clearCircuitEv
FNF:6
FNH:6
DA:6,19
DA:7,45
DA:8,26
DA:10,46
DA:11,27
DA:13,19
DA:14,19
DA:15,19
DA:16,19
DA:18,10
DA:19,10
DA:20,10
DA:21,1
DA:25,9
DA:27,9
DA:30,9
DA:31,36
DA:32,27
DA:35,9
DA:36,9
DA:38,35
DA:39,27
DA:41,27
DA:42,27
DA:43,27
DA:44,27
DA:45,14
DA:46,14
DA:47,14
DA:48,3
DA:49,3
DA:50,3
DA:51,9
DA:52,9
DA:53,9
DA:54,1
DA:55,1
DA:57,26
DA:58,27
DA:60,8
DA:61,8
DA:62,8
DA:64,16
DA:66,32
DA:68,26
DA:69,26
DA:70,26
DA:71,70
DA:72,46
DA:73,46
DA:74,27
DA:75,27
DA:76,1
DA:78,26
DA:80,19
DA:81,19
DA:82,1
DA:84,18
DA:85,18
DA:88,26
DA:90,30
DA:91,24
DA:92,12
DA:96,6
DA:97,6
DA:98,10
DA:100,26
DA:101,26
DA:102,121
DA:103,95
DA:104,95
DA:106,26
DA:107,86
DA:108,60
DA:110,52
DA:111,26
DA:113,2
DA:114,2
DA:115,2
DA:116,2
DA:118,26
DA:119,24
DA:120,112
DA:121,88
DA:123,24
DA:124,24
DA:125,4
DA:126,2
DA:128,2
DA:129,2
DA:132,2
DA:133,2
LF:92
LH:92
end_of_record
TN:
SF:/mnt/c/Users/aa681/OneDrive/Documents/c++/LogicSimulator/src/LogicSimulator.h
FN:17,_ZN14LogicSimulatorD2Ev
FN:17,_ZN14LogicSimulatorD0Ev
FNDA:18,_ZN14LogicSimulatorD2Ev
FNDA:0,_ZN14LogicSimulatorD0Ev
FNF:2
FNH:1
DA:17,18
LF:1
LH:1
end_of_record
TN:
SF:/mnt/c/Users/aa681/OneDrive/Documents/c++/LogicSimulator/src/NotGate.cpp
FN:4,_ZN7NotGateC2Ev
FN:6,_ZN7NotGate9getOutputEv
FNDA:52,_ZN7NotGate9getOutputEv
FNDA:9,_ZN7NotGateC2Ev
FNF:2
FNH:2
DA:4,9
DA:6,52
DA:7,52
LF:3
LH:3
end_of_record
TN:
SF:/mnt/c/Users/aa681/OneDrive/Documents/c++/LogicSimulator/src/OrGate.cpp
FN:4,_ZN6OrGateC2Ev
FN:6,_ZN6OrGate9getOutputEv
FNDA:3,_ZN6OrGateC2Ev
FNDA:9,_ZN6OrGate9getOutputEv
FNF:2
FNH:2
DA:4,3
DA:6,9
DA:7,9
DA:8,27
DA:9,18
DA:11,9
LF:6
LH:6
end_of_record
TN:
SF:/mnt/c/Users/aa681/OneDrive/Documents/c++/LogicSimulator/src/TextUI.cpp
FN:4,_ZN6TextUIC2EP14LogicSimulator
FN:6,_ZNK6TextUI12formatHeaderEii
FN:22,_ZN6TextUI11loadingFileEv
FN:31,_ZN6TextUI10SimulationEv
FN:49,_ZN6TextUI10TruthTableEv
FN:53,_ZN6TextUI4ExitEv
FN:57,_ZNK6TextUI12displayErrorERKNSt7__cxx1112basic_stringIcSt11char_traitsIcESaIcEEE
FN:61,_ZNK6TextUI23displaySimulationResultERKNSt7__cxx1112basic_stringIcSt11char_traitsIcESaIcEEE
FN:67,_ZNK6TextUI17displayTruthTableERKNSt7__cxx1112basic_stringIcSt11char_traitsIcESaIcEEE
FN:73,_ZNK6TextUI11displayMenuEv
FN:81,_ZN6TextUI14processCommandEi
FNDA:2,_ZN6TextUI10SimulationEv
FNDA:1,_ZNK6TextUI23displaySimulationResultERKNSt7__cxx1112basic_stringIcSt11char_traitsIcESaIcEEE
FNDA:1,_ZNK6TextUI11displayMenuEv
FNDA:1,_ZNK6TextUI17displayTruthTableERKNSt7__cxx1112basic_stringIcSt11char_traitsIcESaIcEEE
FNDA:1,_ZN6TextUI4ExitEv
FNDA:7,_ZN6TextUI14processCommandEi
FNDA:2,_ZN6TextUI11loadingFileEv
FNDA:1,_ZN6TextUI10TruthTableEv
FNDA:8,_ZN6TextUIC2EP14LogicSimulator
FNDA:2,_ZNK6TextUI12formatHeaderEii
FNDA:3,_ZNK6TextUI12displayErrorERKNSt7__cxx1112basic_stringIcSt11char_traitsIcESaIcEEE
FNF:11
FNH:11
DA:4,8
DA:6,2
DA:7,2
DA:8,5
DA:9,3
DA:10,3
DA:11,3
DA:13,2
DA:14,4
DA:15,2
DA:16,2
DA:17,2
DA:19,2
DA:20,2
DA:22,2
DA:23,2
DA:24,2
DA:25,2
DA:26,2
DA:27,1
DA:29,2
DA:31,2
DA:32,2
DA:33,1
DA:34,1
DA:36,1
DA:37,4
DA:38,3
DA:39,3
DA:40,3
DA:41,1
DA:42,1
DA:45,1
DA:46,1
DA:47,1
DA:49,1
DA:50,1
DA:51,1
DA:53,1
DA:54,1
DA:55,1
DA:57,3
DA:58,3
DA:59,3
DA:61,1
DA:62,1
DA:63,1
DA:64,1
DA:65,1
DA:67,1
DA:68,1
DA:69,1
DA:70,1
DA:71,1
DA:73,1
DA:74,1
DA:75,1
DA:76,1
DA:77,1
DA:78,1
DA:79,1
DA:81,7
DA:82,7
DA:83,2
DA:84,2
DA:85,2
DA:86,2
DA:87,2
DA:88,2
DA:89,1
DA:90,1
DA:91,1
DA:92,1
DA:93,1
DA:94,1
DA:95,1
DA:96,1
DA:97,1
DA:99,7
LF:79
LH:79
end_of_record
TN:
SF:/mnt/c/Users/aa681/OneDrive/Documents/c++/LogicSimulator/test/MockLogicSimulator.h
FN:6,_ZN18MockLogicSimulator17gmock_loadCircuitERKN7testing7MatcherIRKNSt7__cxx1112basic_stringIcSt11char_traitsIcESaIcEEEEE
FN:6,_ZN18MockLogicSimulator11loadCircuitERKNSt7__cxx1112basic_stringIcSt11char_traitsIcESaIcEEE
FN:7,_ZN18MockLogicSimulator13getTruthTableB5cxx11Ev
FN:7,_ZNK18MockLogicSimulator19gmock_getTruthTableERKN7testing8internal15WithoutMatchersEPNS1_8FunctionIFNSt7__cxx1112basic_stringIcSt11char_traitsIcESaIcEEEvEEE
FN:7,_ZN18MockLogicSimulator19gmock_getTruthTableB5cxx11Ev
FN:8,_ZN18MockLogicSimulator8simulateB5cxx11ERKSt6vectorIiSaIiEE
FN:8,_ZN18MockLogicSimulator14gmock_simulateB5cxx11ERKN7testing7MatcherIRKSt6vectorIiSaIiEEEE
FN:9,_ZN18MockLogicSimulator12getNumInputsEv
FN:9,_ZN18MockLogicSimulator18gmock_getNumInputsEv
FN:10,_ZN18MockLogicSimulator13getNumOutputsEv
FN:10,_ZN18MockLogicSimulator19gmock_getNumOutputsEv
FN:11,_ZN18MockLogicSimulator12clearCircuitEv
FNDA:1,_ZN18MockLogicSimulator13getTruthTableB5cxx11Ev
FNDA:5,_ZN18MockLogicSimulator12getNumInputsEv
FNDA:1,_ZNK18MockLogicSimulator19gmock_getTruthTableERKN7testing8internal15WithoutMatchersEPNS1_8FunctionIFNSt7__cxx1112basic_stringIcSt11char_traitsIcESaIcEEEvEEE
FNDA:2,_ZN18MockLogicSimulator17gmock_loadCircuitERKN7testing7MatcherIRKNSt7__cxx1112basic_stringIcSt11char_traitsIcESaIcEEEEE
FNDA:2,_ZN18MockLogicSimulator13getNumOutputsEv
FNDA:2,_ZN18MockLogicSimulator19gmock_getNumOutputsEv
FNDA:1,_ZN18MockLogicSimulator19gmock_getTruthTableB5cxx11Ev
FNDA:1,_ZN18MockLogicSimulator8simulateB5cxx11ERKSt6vectorIiSaIiEE
FNDA:2,_ZN18MockLogicSimulator11loadCircuitERKNSt7__cxx1112basic_stringIcSt11char_traitsIcESaIcEEE
FNDA:0,_ZN18MockLogicSimulator12clearCircuitEv
FNDA:1,_ZN18MockLogicSimulator14gmock_simulateB5cxx11ERKN7testing7MatcherIRKSt6vectorIiSaIiEEEE
FNDA:3,_ZN18MockLogicSimulator18gmock_getNumInputsEv
FNF:12
FNH:11
DA:6,4
DA:7,3
DA:8,2
DA:9,8
DA:10,4
DA:11,0
LF:6
LH:5
end_of_record
TN:
SF:/mnt/c/Users/aa681/OneDrive/Documents/c++/LogicSimulator/test/ut_LogicSimulator.h
FN:9,_ZN18LogicSimulatorTest5SetUpEv
FN:39,_ZN18LogicSimulatorTest8TearDownEv
FN:51,_ZN42LogicSimulatorTest_LoadCircuitSuccess_Test8TestBodyEv
FN:51,_ZN42LogicSimulatorTest_LoadCircuitSuccess_TestD2Ev
FN:51,_ZN42LogicSimulatorTest_LoadCircuitSuccess_TestC2Ev
FN:51,_ZN42LogicSimulatorTest_LoadCircuitSuccess_TestD0Ev
FN:71,_ZN43LogicSimulatorTest_LoadCircuitSuccess2_TestC2Ev
FN:71,_ZN43LogicSimulatorTest_LoadCircuitSuccess2_TestD2Ev
FN:71,_ZN43LogicSimulatorTest_LoadCircuitSuccess2_Test8TestBodyEv
FN:71,_ZN43LogicSimulatorTest_LoadCircuitSuccess2_TestD0Ev
FN:91,_ZN42LogicSimulatorTest_LoadCircuitFailure_Test8TestBodyEv
FN:91,_ZN42LogicSimulatorTest_LoadCircuitFailure_TestD2Ev
FN:91,_ZN42LogicSimulatorTest_LoadCircuitFailure_TestD0Ev
FN:91,_ZN42LogicSimulatorTest_LoadCircuitFailure_TestC2Ev
FN:99,_ZN43LogicSimulatorTest_LoadCircuitFailure2_TestD0Ev
FN:99,_ZN43LogicSimulatorTest_LoadCircuitFailure2_Test8TestBodyEv
FN:99,_ZN43LogicSimulatorTest_LoadCircuitFailure2_TestC2Ev
FN:99,_ZN43LogicSimulatorTest_LoadCircuitFailure2_TestD2Ev
FN:107,_ZN43LogicSimulatorTest_LoadCircuitFailure3_TestD2Ev
FN:107,_ZN43LogicSimulatorTest_LoadCircuitFailure3_TestD0Ev
FN:107,_ZN43LogicSimulatorTest_LoadCircuitFailure3_TestC2Ev
FN:107,_ZN43LogicSimulatorTest_LoadCircuitFailure3_Test8TestBodyEv
FN:115,_ZN43LogicSimulatorTest_LoadCircuitFailure4_TestD0Ev
FN:115,_ZN43LogicSimulatorTest_LoadCircuitFailure4_TestC2Ev
FN:115,_ZN43LogicSimulatorTest_LoadCircuitFailure4_Test8TestBodyEv
FN:115,_ZN43LogicSimulatorTest_LoadCircuitFailure4_TestD2Ev
FN:124,_ZN34LogicSimulatorTest_Simulation_TestD2Ev
FN:124,_ZN34LogicSimulatorTest_Simulation_TestC2Ev
FN:124,_ZN34LogicSimulatorTest_Simulation_Test8TestBodyEv
FN:124,_ZN34LogicSimulatorTest_Simulation_TestD0Ev
FN:145,_ZN35LogicSimulatorTest_Simulation2_TestD0Ev
FN:145,_ZN35LogicSimulatorTest_Simulation2_TestC2Ev
FN:145,_ZN35LogicSimulatorTest_Simulation2_TestD2Ev
FN:145,_ZN35LogicSimulatorTest_Simulation2_Test8TestBodyEv
FN:166,_ZN34LogicSimulatorTest_TruthTable_Test8TestBodyEv
FN:166,_ZN34LogicSimulatorTest_TruthTable_TestD0Ev
FN:166,_ZN34LogicSimulatorTest_TruthTable_TestC2Ev
FN:166,_ZN34LogicSimulatorTest_TruthTable_TestD2Ev
FN:202,_ZN35LogicSimulatorTest_TruthTable2_TestD2Ev
FN:202,_ZN35LogicSimulatorTest_TruthTable2_TestD0Ev
FN:202,_ZN35LogicSimulatorTest_TruthTable2_TestC2Ev
FN:202,_ZN35LogicSimulatorTest_TruthTable2_Test8TestBodyEv
FNDA:1,_ZN34LogicSimulatorTest_TruthTable_TestD2Ev
FNDA:1,_ZN35LogicSimulatorTest_TruthTable2_TestC2Ev
FNDA:1,_ZN34LogicSimulatorTest_TruthTable_TestC2Ev
FNDA:1,_ZN42LogicSimulatorTest_LoadCircuitFailure_TestC2Ev
FNDA:1,_ZN43LogicSimulatorTest_LoadCircuitFailure3_TestD0Ev
FNDA:1,_ZN43LogicSimulatorTest_LoadCircuitFailure4_TestD2Ev
FNDA:1,_ZN43LogicSimulatorTest_LoadCircuitSuccess2_TestC2Ev
FNDA:1,_ZN42LogicSimulatorTest_LoadCircuitSuccess_TestC2Ev
FNDA:1,_ZN34LogicSimulatorTest_Simulation_TestD2Ev
FNDA:1,_ZN43LogicSimulatorTest_LoadCircuitSuccess2_TestD2Ev
FNDA:1,_ZN34LogicSimulatorTest_Simulation_TestC2Ev
FNDA:1,_ZN42LogicSimulatorTest_LoadCircuitSuccess_TestD0Ev
FNDA:1,_ZN35LogicSimulatorTest_TruthTable2_TestD0Ev
FNDA:1,_ZN34LogicSimulatorTest_Simulation_Test8TestBodyEv
FNDA:1,_ZN43LogicSimulatorTest_LoadCircuitSuccess2_Test8TestBodyEv
FNDA:1,_ZN43LogicSimulatorTest_LoadCircuitFailure2_TestC2Ev
FNDA:10,_ZN18LogicSimulatorTest5SetUpEv
FNDA:1,_ZN35LogicSimulatorTest_Simulation2_Test8TestBodyEv
FNDA:1,_ZN43LogicSimulatorTest_LoadCircuitSuccess2_TestD0Ev
FNDA:1,_ZN34LogicSimulatorTest_Simulation_TestD0Ev
FNDA:1,_ZN43LogicSimulatorTest_LoadCircuitFailure3_TestC2Ev
FNDA:1,_ZN35LogicSimulatorTest_TruthTable2_Test8TestBodyEv
FNDA:1,_ZN43LogicSimulatorTest_LoadCircuitFailure3_Test8TestBodyEv
FNDA:1,_ZN43LogicSimulatorTest_LoadCircuitFailure2_TestD2Ev
FNDA:1,_ZN42LogicSimulatorTest_LoadCircuitFailure_Test8TestBodyEv
FNDA:1,_ZN35LogicSimulatorTest_Simulation2_TestC2Ev
FNDA:1,_ZN43LogicSimulatorTest_LoadCircuitFailure4_TestC2Ev
FNDA:1,_ZN42LogicSimulatorTest_LoadCircuitSuccess_Test8TestBodyEv
FNDA:1,_ZN34LogicSimulatorTest_TruthTable_TestD0Ev
FNDA:1,_ZN43LogicSimulatorTest_LoadCircuitFailure3_TestD2Ev
FNDA:1,_ZN42LogicSimulatorTest_LoadCircuitFailure_TestD2Ev
FNDA:1,_ZN43LogicSimulatorTest_LoadCircuitFailure2_TestD0Ev
FNDA:1,_ZN34LogicSimulatorTest_TruthTable_Test8TestBodyEv
FNDA:1,_ZN43LogicSimulatorTest_LoadCircuitFailure4_TestD0Ev
FNDA:1,_ZN35LogicSimulatorTest_Simulation2_TestD0Ev
FNDA:1,_ZN43LogicSimulatorTest_LoadCircuitFailure4_Test8TestBodyEv
FNDA:1,_ZN43LogicSimulatorTest_LoadCircuitFailure2_Test8TestBodyEv
FNDA:10,_ZN18LogicSimulatorTest8TearDownEv
FNDA:1,_ZN35LogicSimulatorTest_TruthTable2_TestD2Ev
FNDA:1,_ZN35LogicSimulatorTest_Simulation2_TestD2Ev
FNDA:1,_ZN42LogicSimulatorTest_LoadCircuitSuccess_TestD2Ev
FNDA:1,_ZN42LogicSimulatorTest_LoadCircuitFailure_TestD0Ev
FNF:42
FNH:42
DA:9,10
DA:10,10
DA:11,10
DA:12,10
DA:13,10
DA:14,10
DA:15,10
DA:16,10
DA:17,10
DA:18,10
DA:19,10
DA:20,10
DA:21,10
DA:22,10
DA:23,10
DA:24,10
DA:25,10
DA:26,10
DA:27,10
DA:28,10
DA:29,10
DA:30,10
DA:31,10
DA:32,10
DA:33,10
DA:34,10
DA:35,10
DA:37,10
DA:39,10
DA:41,10
DA:42,10
DA:43,10
DA:44,10
DA:45,10
DA:46,10
DA:47,10
DA:51,4
DA:52,1
DA:53,1
DA:56,1
DA:57,1
DA:58,1
DA:59,1
DA:60,1
DA:63,1
DA:64,1
DA:65,1
DA:67,2
DA:68,1
DA:69,1
DA:71,4
DA:72,1
DA:73,1
DA:76,1
DA:77,1
DA:78,1
DA:79,1
DA:80,1
DA:83,1
DA:84,1
DA:85,1
DA:87,2
DA:88,1
DA:89,1
DA:91,4
DA:93,1
DA:94,1
DA:96,1
DA:97,1
DA:99,4
DA:101,1
DA:102,1
DA:104,1
DA:105,1
DA:107,4
DA:109,1
DA:110,1
DA:112,1
DA:113,1
DA:115,4
DA:117,1
DA:118,1
DA:120,1
DA:121,1
DA:124,4
DA:125,1
DA:126,1
DA:128,1
DA:129,1
DA:131,1
DA:132,1
DA:134,1
DA:137,1
DA:138,1
DA:140,2
DA:141,1
DA:142,1
DA:145,4
DA:146,1
DA:147,1
DA:149,1
DA:150,1
DA:152,1
DA:153,1
DA:155,1
DA:158,1
DA:159,1
DA:161,2
DA:162,1
DA:163,1
DA:166,4
DA:167,1
DA:168,1
DA:170,1
DA:171,1
DA:173,1
DA:175,1
DA:178,1
DA:195,1
DA:197,2
DA:198,1
DA:199,1
DA:202,4
DA:203,1
DA:204,1
DA:206,1
DA:207,1
DA:209,1
DA:211,1
DA:214,1
DA:223,1
DA:225,2
DA:226,1
DA:227,1
LF:134
LH:134
end_of_record
TN:
SF:/mnt/c/Users/aa681/OneDrive/Documents/c++/LogicSimulator/test/ut_TextUI.h
FN:14,_ZN10TextUITest5SetUpEv
FN:17,_ZN10TextUITest8TearDownEv
FN:22,_ZN35TextUITest_TestLoadFileSuccess_TestD0Ev
FN:22,_ZN35TextUITest_TestLoadFileSuccess_TestC2Ev
FN:22,_ZN35TextUITest_TestLoadFileSuccess_TestD2Ev
FN:22,_ZN35TextUITest_TestLoadFileSuccess_Test8TestBodyEv
FN:42,_ZN35TextUITest_TestLoadFileFailure_Test8TestBodyEv
FN:42,_ZN35TextUITest_TestLoadFileFailure_TestD0Ev
FN:42,_ZN35TextUITest_TestLoadFileFailure_TestC2Ev
FN:42,_ZN35TextUITest_TestLoadFileFailure_TestD2Ev
FN:63,_ZN30TextUITest_TestSimulation_TestD0Ev
FN:63,_ZN30TextUITest_TestSimulation_TestD2Ev
FN:63,_ZN30TextUITest_TestSimulation_Test8TestBodyEv
FN:63,_ZN30TextUITest_TestSimulation_TestC2Ev
FN:87,_ZN37TextUITest_TestSimulationFailure_TestD0Ev
FN:87,_ZN37TextUITest_TestSimulationFailure_Test8TestBodyEv
FN:87,_ZN37TextUITest_TestSimulationFailure_TestC2Ev
FN:87,_ZN37TextUITest_TestSimulationFailure_TestD2Ev
FN:102,_ZN30TextUITest_TestTruthTable_TestD2Ev
FN:102,_ZN30TextUITest_TestTruthTable_TestD0Ev
FN:102,_ZN30TextUITest_TestTruthTable_Test8TestBodyEv
FN:102,_ZN30TextUITest_TestTruthTable_TestC2Ev
FN:120,_ZN31TextUITest_TestDisplayMenu_TestC2Ev
FN:120,_ZN31TextUITest_TestDisplayMenu_Test8TestBodyEv
FN:120,_ZN31TextUITest_TestDisplayMenu_TestD0Ev
FN:120,_ZN31TextUITest_TestDisplayMenu_TestD2Ev
FN:136,_ZN41TextUITest_TestProcessCommandInvalid_TestD2Ev
FN:136,_ZN41TextUITest_TestProcessCommandInvalid_Test8TestBodyEv
FN:136,_ZN41TextUITest_TestProcessCommandInvalid_TestC2Ev
FN:136,_ZN41TextUITest_TestProcessCommandInvalid_TestD0Ev
FN:149,_ZN38TextUITest_TestProcessCommandExit_Test8TestBodyEv
FN:149,_ZN38TextUITest_TestProcessCommandExit_TestD2Ev
FN:149,_ZN38TextUITest_TestProcessCommandExit_TestD0Ev
FN:149,_ZN38TextUITest_TestProcessCommandExit_TestC2Ev
FNDA:1,_ZN30TextUITest_TestSimulation_TestD0Ev
FNDA:1,_ZN35TextUITest_TestLoadFileFailure_TestC2Ev
FNDA:1,_ZN37TextUITest_TestSimulationFailure_TestC2Ev
FNDA:1,_ZN31TextUITest_TestDisplayMenu_Test8TestBodyEv
FNDA:1,_ZN37TextUITest_TestSimulationFailure_Test8TestBodyEv
FNDA:1,_ZN35TextUITest_TestLoadFileFailure_Test8TestBodyEv
FNDA:1,_ZN41TextUITest_TestProcessCommandInvalid_TestD2Ev
FNDA:1,_ZN37TextUITest_TestSimulationFailure_TestD0Ev
FNDA:1,_ZN35TextUITest_TestLoadFileFailure_TestD0Ev
FNDA:1,_ZN35TextUITest_TestLoadFileSuccess_TestD0Ev
FNDA:1,_ZN31TextUITest_TestDisplayMenu_TestC2Ev
FNDA:1,_ZN41TextUITest_TestProcessCommandInvalid_Test8TestBodyEv
FNDA:1,_ZN35TextUITest_TestLoadFileFailure_TestD2Ev
FNDA:1,_ZN38TextUITest_TestProcessCommandExit_TestD0Ev
FNDA:1,_ZN38TextUITest_TestProcessCommandExit_TestD2Ev
FNDA:1,_ZN41TextUITest_TestProcessCommandInvalid_TestC2Ev
FNDA:1,_ZN30TextUITest_TestTruthTable_TestC2Ev
FNDA:1,_ZN41TextUITest_TestProcessCommandInvalid_TestD0Ev
FNDA:1,_ZN38TextUITest_TestProcessCommandExit_TestC2Ev
FNDA:8,_ZN10TextUITest5SetUpEv
FNDA:1,_ZN31TextUITest_TestDisplayMenu_TestD2Ev
FNDA:1,_ZN30TextUITest_TestTruthTable_Test8TestBodyEv
FNDA:1,_ZN30TextUITest_TestTruthTable_TestD0Ev
FNDA:1,_ZN30TextUITest_TestTruthTable_TestD2Ev
FNDA:1,_ZN31TextUITest_TestDisplayMenu_TestD0Ev
FNDA:1,_ZN35TextUITest_TestLoadFileSuccess_Test8TestBodyEv
FNDA:1,_ZN37TextUITest_TestSimulationFailure_TestD2Ev
FNDA:8,_ZN10TextUITest8TearDownEv
FNDA:1,_ZN35TextUITest_TestLoadFileSuccess_TestD2Ev
FNDA:1,_ZN38TextUITest_TestProcessCommandExit_Test8TestBodyEv
FNDA:1,_ZN35TextUITest_TestLoadFileSuccess_TestC2Ev
FNDA:1,_ZN30TextUITest_TestSimulation_TestD2Ev
FNDA:1,_ZN30TextUITest_TestSimulation_TestC2Ev
FNDA:1,_ZN30TextUITest_TestSimulation_Test8TestBodyEv
FNF:34
FNH:34
DA:14,8
DA:15,8
DA:17,8
DA:19,8
DA:22,4
DA:23,1
DA:26,2
DA:27,1
DA:30,1
DA:31,1
DA:33,1
DA:35,1
DA:36,1
DA:38,1
DA:39,1
DA:40,1
DA:42,4
DA:43,1
DA:46,2
DA:47,1
DA:50,1
DA:51,1
DA:53,1
DA:55,1
DA:56,1
DA:58,1
DA:59,1
DA:60,1
DA:61,1
DA:63,4
DA:64,1
DA:65,1
DA:66,1
DA:69,2
DA:70,1
DA:73,1
DA:74,1
DA:76,1
DA:78,1
DA:79,1
DA:81,1
DA:82,1
DA:83,1
DA:84,1
DA:85,1
DA:87,4
DA:88,1
DA:91,1
DA:92,1
DA:94,1
DA:96,1
DA:98,1
DA:99,1
DA:100,1
DA:102,4
DA:103,1
DA:104,1
DA:105,1
DA:108,1
DA:109,1
DA:111,1
DA:113,1
DA:115,1
DA:116,1
DA:117,1
DA:118,1
DA:120,4
DA:122,1
DA:123,1
DA:125,1
DA:127,1
DA:129,1
DA:130,1
DA:131,1
DA:132,1
DA:133,1
DA:134,1
DA:136,4
DA:138,1
DA:139,1
DA:141,1
DA:143,1
DA:145,1
DA:146,1
DA:147,1
DA:149,4
DA:151,1
DA:152,1
DA:154,1
DA:156,1
DA:158,1
DA:159,1
DA:160,1
LF:93
LH:93
end_of_record
TN:
SF:/mnt/c/Users/aa681/OneDrive/Documents/c++/LogicSimulator/test/ut_main.cpp
FN:5,main
FNDA:1,main
FNF:1
FNH:1
DA:5,1
DA:6,1
DA:7,1
DA:8,1
LF:4
LH:4
end_of_record
